Certificate:
    Data:
        Version: 3 (0x2)
        Serial Number: 1 (0x1)
    Signature Algorithm: sha1WithRSAEncryption
        Issuer: C=DO, ST=SA, L=Santiago, O=pucmm, OU=pucmm, CN=server/name=admin/emailAddress=jeanoscarcesar@pucmm.com\x08\x08\x08
        Validity
            Not Before: Jul 22 19:55:00 2018 GMT
            Not After : Jul 19 19:55:00 2028 GMT
        Subject: C=DO, ST=SA, L=pucmm\x08\x08\x08\x1B[2~, O=pucmm, OU=pucmm, CN=server/name=admin/emailAddress=jeanoscarcesar@pucmm.edu.do
        Subject Public Key Info:
            Public Key Algorithm: rsaEncryption
                Public-Key: (4096 bit)
                Modulus:
                    00:9d:81:15:16:2a:2c:fe:ca:67:2a:b1:e5:5b:47:
                    fd:02:65:48:10:9f:02:f6:83:6d:02:37:92:0e:39:
                    b2:4c:7f:e5:85:9c:48:c5:d9:8b:06:28:9e:59:e6:
                    a4:c8:0f:00:23:7b:24:8d:33:a8:fc:89:90:96:fc:
                    71:cb:b0:cc:7d:cc:35:fe:58:5f:73:50:d3:e0:e2:
                    d5:11:af:16:8c:47:ad:d4:9f:68:cd:d1:fb:15:c1:
                    94:50:28:ba:10:66:3a:b8:36:16:4a:3d:c3:db:28:
                    b1:84:6e:2a:0c:fe:f9:ba:82:57:3d:fe:69:5d:09:
                    db:79:e3:ae:f5:01:5a:53:23:cc:c1:e2:f5:20:a2:
                    d0:a6:0c:16:85:d8:94:5f:c5:ae:1c:25:dd:a9:22:
                    3f:ba:c8:ec:8f:f8:c7:c8:ce:50:58:ac:a3:d2:f7:
                    e1:96:08:60:7f:1d:14:10:fe:5d:e2:5b:e1:04:6f:
                    54:91:9f:59:6a:0e:dc:a4:10:e8:67:ca:16:c2:3c:
                    05:e1:e8:a9:d3:58:68:0d:48:cc:53:6d:27:9c:51:
                    f4:93:2c:26:0e:7c:cd:04:b5:9a:2a:a5:94:9f:1f:
                    f1:3b:0d:3b:6b:b3:75:2f:5d:0b:67:82:3b:c2:1b:
                    ca:a5:7b:ec:ad:f7:23:a5:e8:35:8d:20:20:d8:92:
                    26:c7:d7:c2:c8:26:59:49:ce:54:14:35:99:09:eb:
                    98:8a:ee:09:8b:73:68:d0:df:75:67:ad:c2:70:35:
                    75:86:08:0c:fd:2a:d5:07:7b:b8:f2:ba:49:67:dd:
                    30:96:66:41:bd:f5:1a:90:fb:8a:98:22:9c:91:37:
                    75:64:59:5b:13:84:e7:d0:82:f2:1e:6c:b8:a5:dd:
                    19:e1:44:18:ea:1d:21:8a:3a:68:fe:f6:c7:62:f3:
                    13:25:ba:eb:f4:83:57:89:fc:b7:21:c5:d6:41:35:
                    e4:0c:b2:bf:39:f6:fb:6b:76:2f:c5:91:8c:e5:64:
                    6d:5d:3d:0c:3d:00:b3:a1:ad:0f:22:cd:23:6d:96:
                    5e:cb:68:9e:75:0a:2a:eb:b2:ef:29:7c:9c:82:9e:
                    72:03:af:f8:6e:86:cd:3c:dc:58:ad:6f:f9:f2:30:
                    12:1b:ec:58:f7:96:00:70:ba:8f:e9:ca:9e:48:0b:
                    94:66:a3:06:b8:29:01:42:24:51:37:64:fc:b0:9c:
                    19:a2:70:a2:5a:0d:23:42:0c:a6:84:fa:36:23:b4:
                    c2:94:e2:0b:72:60:76:ce:5f:62:79:d9:3d:ac:f1:
                    92:af:19:26:51:af:5b:02:0e:bf:8f:20:88:e8:79:
                    4c:ae:c0:4f:43:81:ac:60:1c:3c:78:9f:7a:59:b2:
                    a6:35:eb
                Exponent: 65537 (0x10001)
        X509v3 extensions:
            X509v3 Basic Constraints: 
                CA:FALSE
            Netscape Cert Type: 
                SSL Server
            Netscape Comment: 
                Easy-RSA Generated Server Certificate
            X509v3 Subject Key Identifier: 
                A8:2E:E2:0A:8C:A0:8D:56:DA:2F:16:36:E7:4C:2A:EC:E7:5B:2B:12
            X509v3 Authority Key Identifier: 
                keyid:1A:B5:15:AC:D8:24:1E:D4:0E:DA:05:3D:0D:D3:04:07:B5:3A:73:46
                DirName:/C=DO/ST=SA/L=Santiago/O=pucmm/OU=pucmm/CN=server/name=admin/emailAddress=jeanoscarcesar@pucmm.com\x08\x08\x08
                serial:D0:DD:D6:66:F9:3C:B1:70

            X509v3 Extended Key Usage: 
                TLS Web Server Authentication
            X509v3 Key Usage: 
                Digital Signature, Key Encipherment
    Signature Algorithm: sha1WithRSAEncryption
         8c:31:dc:31:42:41:5e:89:75:c5:94:62:2c:39:8a:6c:7f:50:
         55:9d:89:37:b6:6b:5e:86:c3:70:8e:81:39:60:33:ee:f4:9e:
         34:46:b0:61:19:75:39:9f:81:09:b0:0b:25:14:10:84:5c:10:
         69:14:03:d2:a8:14:af:fc:78:11:53:48:21:32:b8:2e:15:1a:
         f6:67:15:bf:7d:c7:55:f9:9f:8d:ab:33:ec:b7:53:12:17:b7:
         68:9a:aa:79:3e:ba:a3:4f:66:26:db:1e:5a:f0:13:1c:63:45:
         14:83:66:1c:35:d6:da:26:e4:d0:43:53:bc:6c:0a:1b:bb:86:
         86:cc:10:f7:52:ba:49:5f:76:fd:72:ac:d3:38:5d:af:76:32:
         97:da:f0:ec:52:40:0f:12:ce:f5:11:98:f4:b1:76:39:ad:10:
         04:71:b2:f0:28:53:e8:71:c9:86:7f:4d:c4:cf:bc:5b:e0:69:
         96:0a:12:47:3c:0b:cb:bd:40:f6:7a:5c:e9:59:cb:2d:70:dd:
         df:cd:b4:f8:0c:33:59:d0:4a:73:e3:7d:10:ba:34:e3:60:49:
         d6:f9:62:17:a9:97:25:20:ed:4d:51:f6:6b:64:e4:0d:62:ec:
         4c:2a:21:59:e2:75:19:80:e4:dc:c9:8d:3d:fb:ab:1a:cd:8f:
         b2:a8:b2:5f:15:ae:06:2c:d2:3b:04:ca:f4:e7:da:18:5c:9f:
         34:78:6b:cb:c6:2f:64:e1:80:b3:28:b7:37:10:0d:91:33:3d:
         26:f2:fd:d0:e5:37:9c:84:0d:97:48:35:df:27:90:4d:dd:4f:
         f2:57:44:ba:4c:54:ff:bb:47:09:76:13:1b:0a:da:55:a8:7a:
         96:c9:9e:f2:03:72:03:20:53:ae:0a:a5:0b:e2:89:ce:6c:cb:
         96:e7:12:cd:b3:6f:58:74:01:5d:c4:82:0b:c2:98:f9:26:fd:
         09:07:60:1a:6f:e7:72:8b:7a:59:b1:00:90:f8:cb:6c:5c:4c:
         e9:ef:0e:55:6a:60:3d:fe:a3:5f:2d:b7:e0:4e:78:b7:d7:da:
         ee:f9:83:36:81:7b:11:fe:c0:99:9a:b5:2d:54:82:cd:c6:c0:
         c3:df:a2:1d:77:b2:c8:3a:74:51:2c:49:5a:62:c3:4d:e6:b2:
         f9:7d:9c:ba:cf:35:f2:d5:03:a2:0b:35:8d:9c:08:9d:d5:b6:
         9e:dd:86:0d:a9:2d:f9:d2:0e:8e:85:58:ed:d5:d5:2e:b1:c9:
         d7:45:32:c1:21:de:46:85:eb:41:af:aa:51:61:14:16:4e:64:
         16:c4:0d:7c:e4:63:ef:e4:84:9b:07:c5:a7:0d:2e:15:fc:09:
         a1:c4:d5:a3:26:84:48:43
-----BEGIN CERTIFICATE-----
MIIHIjCCBQqgAwIBAgIBATANBgkqhkiG9w0BAQUFADCBmjELMAkGA1UEBhMCRE8x
CzAJBgNVBAgTAlNBMREwDwYDVQQHEwhTYW50aWFnbzEOMAwGA1UEChMFcHVjbW0x
DjAMBgNVBAsTBXB1Y21tMQ8wDQYDVQQDEwZzZXJ2ZXIxDjAMBgNVBCkTBWFkbWlu
MSowKAYJKoZIhvcNAQkBFhtqZWFub3NjYXJjZXNhckBwdWNtbS5jb20ICAgwHhcN
MTgwNzIyMTk1NTAwWhcNMjgwNzE5MTk1NTAwWjCBnjELMAkGA1UEBhMCRE8xCzAJ
BgNVBAgTAlNBMRUwEwYDVQQHFAxwdWNtbQgICBtbMn4xDjAMBgNVBAoTBXB1Y21t
MQ4wDAYDVQQLEwVwdWNtbTEPMA0GA1UEAxMGc2VydmVyMQ4wDAYDVQQpEwVhZG1p
bjEqMCgGCSqGSIb3DQEJARYbamVhbm9zY2FyY2VzYXJAcHVjbW0uZWR1LmRvMIIC
IjANBgkqhkiG9w0BAQEFAAOCAg8AMIICCgKCAgEAnYEVFios/spnKrHlW0f9AmVI
EJ8C9oNtAjeSDjmyTH/lhZxIxdmLBiieWeakyA8AI3skjTOo/ImQlvxxy7DMfcw1
/lhfc1DT4OLVEa8WjEet1J9ozdH7FcGUUCi6EGY6uDYWSj3D2yixhG4qDP75uoJX
Pf5pXQnbeeOu9QFaUyPMweL1IKLQpgwWhdiUX8WuHCXdqSI/usjsj/jHyM5QWKyj
0vfhlghgfx0UEP5d4lvhBG9UkZ9Zag7cpBDoZ8oWwjwF4eip01hoDUjMU20nnFH0
kywmDnzNBLWaKqWUnx/xOw07a7N1L10LZ4I7whvKpXvsrfcjpeg1jSAg2JImx9fC
yCZZSc5UFDWZCeuYiu4Ji3No0N91Z63CcDV1hggM/SrVB3u48rpJZ90wlmZBvfUa
kPuKmCKckTd1ZFlbE4Tn0ILyHmy4pd0Z4UQY6h0hijpo/vbHYvMTJbrr9INXify3
IcXWQTXkDLK/Ofb7a3YvxZGM5WRtXT0MPQCzoa0PIs0jbZZey2iedQoq67LvKXyc
gp5yA6/4bobNPNxYrW/58jASG+xY95YAcLqP6cqeSAuUZqMGuCkBQiRRN2T8sJwZ
onCiWg0jQgymhPo2I7TClOILcmB2zl9iedk9rPGSrxkmUa9bAg6/jyCI6HlMrsBP
Q4GsYBw8eJ96WbKmNesCAwEAAaOCAWswggFnMAkGA1UdEwQCMAAwEQYJYIZIAYb4
QgEBBAQDAgZAMDQGCWCGSAGG+EIBDQQnFiVFYXN5LVJTQSBHZW5lcmF0ZWQgU2Vy
dmVyIENlcnRpZmljYXRlMB0GA1UdDgQWBBSoLuIKjKCNVtovFjbnTCrs51srEjCB
zwYDVR0jBIHHMIHEgBQatRWs2CQe1A7aBT0N0wQHtTpzRqGBoKSBnTCBmjELMAkG
A1UEBhMCRE8xCzAJBgNVBAgTAlNBMREwDwYDVQQHEwhTYW50aWFnbzEOMAwGA1UE
ChMFcHVjbW0xDjAMBgNVBAsTBXB1Y21tMQ8wDQYDVQQDEwZzZXJ2ZXIxDjAMBgNV
BCkTBWFkbWluMSowKAYJKoZIhvcNAQkBFhtqZWFub3NjYXJjZXNhckBwdWNtbS5j
b20ICAiCCQDQ3dZm+TyxcDATBgNVHSUEDDAKBggrBgEFBQcDATALBgNVHQ8EBAMC
BaAwDQYJKoZIhvcNAQEFBQADggIBAIwx3DFCQV6JdcWUYiw5imx/UFWdiTe2a16G
w3COgTlgM+70njRGsGEZdTmfgQmwCyUUEIRcEGkUA9KoFK/8eBFTSCEyuC4VGvZn
Fb99x1X5n42rM+y3UxIXt2iaqnk+uqNPZibbHlrwExxjRRSDZhw11tom5NBDU7xs
Chu7hobMEPdSuklfdv1yrNM4Xa92Mpfa8OxSQA8SzvURmPSxdjmtEARxsvAoU+hx
yYZ/TcTPvFvgaZYKEkc8C8u9QPZ6XOlZyy1w3d/NtPgMM1nQSnPjfRC6NONgSdb5
YheplyUg7U1R9mtk5A1i7EwqIVnidRmA5NzJjT37qxrNj7Kosl8VrgYs0jsEyvTn
2hhcnzR4a8vGL2ThgLMotzcQDZEzPSby/dDlN5yEDZdINd8nkE3dT/JXRLpMVP+7
Rwl2ExsK2lWoepbJnvIDcgMgU64KpQviic5sy5bnEs2zb1h0AV3EggvCmPkm/QkH
YBpv53KLelmxAJD4y2xcTOnvDlVqYD3+o18tt+BOeLfX2u75gzaBexH+wJmatS1U
gs3GwMPfoh13ssg6dFEsSVpiw03msvl9nLrPNfLVA6ILNY2cCJ3Vtp7dhg2pLfnS
Do6FWO3V1S6xyddFMsEh3kaF60GvqlFhFBZOZBbEDXzkY+/khJsHxacNLhX8CaHE
1aMmhEhD
-----END CERTIFICATE-----
